; Function Attrs: mustprogress uwtable
define hidden noundef i32 @hb_ot_math_get_glyph_variants(ptr noundef %0, i32 noundef %1, i32 noundef %2, i32 noundef %3, ptr noundef %4, ptr noundef %5) local_unnamed_addr #0 {
  %7 = getelementptr inbounds i8, ptr %0, i64 32
  %8 = load ptr, ptr %7, align 8
  %9 = getelementptr inbounds i8, ptr %8, i64 400
  %10 = tail call noundef ptr @_ZNK16hb_lazy_loader_tIN2OT4MATHE22hb_table_lazy_loader_tIS1_Lj40ELb1EE9hb_face_tLj40E9hb_blob_tE10get_storedEv(ptr noundef nonnull align 8 dereferenceable(8) %9)
  %11 = getelementptr inbounds i8, ptr %10, i64 16
  %12 = load ptr, ptr %11, align 8
  %13 = getelementptr inbounds i8, ptr %10, i64 24
  %14 = load i32, ptr %13, align 8
  %15 = icmp ult i32 %14, 10
  %spec.select.i.i.i.i.i = select i1 %15, ptr @_hb_NullPool, ptr %12
  %16 = getelementptr inbounds i8, ptr %spec.select.i.i.i.i.i, i64 8
  %17 = load i8, ptr %16, align 1
  %18 = zext i8 %17 to i32
  %19 = shl nuw nsw i32 %18, 8
  %20 = getelementptr inbounds i8, ptr %spec.select.i.i.i.i.i, i64 9
  %21 = load i8, ptr %20, align 1
  %22 = zext i8 %21 to i32
  %23 = or disjoint i32 %19, %22
  %24 = icmp eq i32 %23, 0
  %25 = zext nneg i32 %23 to i64
  %26 = getelementptr inbounds i8, ptr %spec.select.i.i.i.i.i, i64 %25
  %.0.i.i.i = select i1 %24, ptr @_hb_NullPool, ptr %26
  %27 = tail call noundef i32 @_ZNK2OT12MathVariants18get_glyph_variantsEj14hb_direction_tP9hb_font_tjPjP26hb_ot_math_glyph_variant_t(ptr noundef nonnull align 1 dereferenceable(12) %.0.i.i.i, i32 noundef %1, i32 noundef %2, ptr noundef %0, i32 noundef %3, ptr noundef %4, ptr noundef %5)
  ret i32 %27
}